target datalayout = "e-m:e-p270:32:32-p271:32:32-p272:64:64-i64:64-i128:128-f80:128-n8:16:32:64-S128"
target triple = "x86_64-unknown-linux-gnu"

%"class.std::__shared_count" = type { ptr }
%"class.std::__shared_ptr.68" = type { ptr, %"class.std::__shared_count" }
%"class.facebook::velox::exec::LocalDecodedVector" = type { %"class.std::reference_wrapper", %"class.std::unique_ptr.101" }
%"class.std::reference_wrapper" = type { ptr }
%"class.std::unique_ptr.101" = type { %"struct.std::__uniq_ptr_data.102" }
%"struct.std::__uniq_ptr_data.102" = type { %"class.std::__uniq_ptr_impl.103" }
%"class.std::__uniq_ptr_impl.103" = type { %"class.std::tuple.104" }
%"class.std::tuple.104" = type { %"struct.std::_Tuple_impl.105" }
%"struct.std::_Tuple_impl.105" = type { %"struct.std::_Head_base.108" }
%"struct.std::_Head_base.108" = type { ptr }
%class.anon = type { ptr, ptr, ptr }
%"class.std::vector.55" = type { %"struct.std::_Vector_base.56" }
%"struct.std::_Vector_base.56" = type { %"struct.std::_Vector_base<unsigned long, std::allocator<unsigned long>>::_Vector_impl" }
%"struct.std::_Vector_base<unsigned long, std::allocator<unsigned long>>::_Vector_impl" = type { %"struct.std::_Vector_base<unsigned long, std::allocator<unsigned long>>::_Vector_impl_data" }
%"struct.std::_Vector_base<unsigned long, std::allocator<unsigned long>>::_Vector_impl_data" = type { ptr, ptr, ptr }
%"class.facebook::velox::DecodedVector" = type { i32, ptr, ptr, ptr, %"class.std::optional.121", ptr, i8, i8, i8, i8, i8, i32, %"class.std::vector.129", %"class.std::vector.55" }
%"class.std::optional.121" = type { %"struct.std::_Optional_base.122" }
%"struct.std::_Optional_base.122" = type { %"struct.std::_Optional_payload.124" }
%"struct.std::_Optional_payload.124" = type { %"struct.std::_Optional_payload_base.base.126", [7 x i8] }
%"struct.std::_Optional_payload_base.base.126" = type <{ %"union.std::_Optional_payload_base<const unsigned long *>::_Storage", i8 }>
%"union.std::_Optional_payload_base<const unsigned long *>::_Storage" = type { ptr }
%"class.std::vector.129" = type { %"struct.std::_Vector_base.130" }
%"struct.std::_Vector_base.130" = type { %"struct.std::_Vector_base<int, std::allocator<int>>::_Vector_impl" }
%"struct.std::_Vector_base<int, std::allocator<int>>::_Vector_impl" = type { %"struct.std::_Vector_base<int, std::allocator<int>>::_Vector_impl_data" }
%"struct.std::_Vector_base<int, std::allocator<int>>::_Vector_impl_data" = type { ptr, ptr, ptr }

; Function Attrs: mustprogress nounwind uwtable
define linkonce_odr noundef nonnull align 8 dereferenceable(8) ptr @_ZNSt10_Head_baseILm0EPN8facebook5velox13DecodedVectorELb0EE7_M_headERKS4_(ptr noundef nonnull align 8 dereferenceable(8) %__b) #2 comdat align 2 {
entry:
  %__b.addr = alloca ptr, align 8
  store ptr %__b, ptr %__b.addr, align 8
  %0 = load ptr, ptr %__b.addr, align 8
  %_M_head_impl = getelementptr inbounds %"struct.std::_Head_base.108", ptr %0, i32 0, i32 0
  ret ptr %_M_head_impl
}

; Function Attrs: mustprogress nounwind uwtable
define linkonce_odr noundef nonnull align 8 dereferenceable(8) ptr @_ZNSt11_Tuple_implILm0EJPN8facebook5velox13DecodedVectorESt14default_deleteIS2_EEE7_M_headERKS6_(ptr noundef nonnull align 8 dereferenceable(8) %__t) #2 comdat align 2 {
entry:
  %__t.addr = alloca ptr, align 8
  store ptr %__t, ptr %__t.addr, align 8
  %0 = load ptr, ptr %__t.addr, align 8
  %call = call noundef nonnull align 8 dereferenceable(8) ptr @_ZNSt10_Head_baseILm0EPN8facebook5velox13DecodedVectorELb0EE7_M_headERKS4_(ptr noundef nonnull align 8 dereferenceable(8) %0) #16
  ret ptr %call
}

; Function Attrs: mustprogress nounwind uwtable
define linkonce_odr noundef nonnull align 8 dereferenceable(8) ptr @_ZSt12__get_helperILm0EPN8facebook5velox13DecodedVectorEJSt14default_deleteIS2_EEERKT0_RKSt11_Tuple_implIXT_EJS6_DpT1_EE(ptr noundef nonnull align 8 dereferenceable(8) %__t) #2 comdat {
entry:
  %__t.addr = alloca ptr, align 8
  store ptr %__t, ptr %__t.addr, align 8
  %0 = load ptr, ptr %__t.addr, align 8
  %call = call noundef nonnull align 8 dereferenceable(8) ptr @_ZNSt11_Tuple_implILm0EJPN8facebook5velox13DecodedVectorESt14default_deleteIS2_EEE7_M_headERKS6_(ptr noundef nonnull align 8 dereferenceable(8) %0) #16
  ret ptr %call
}

; Function Attrs: mustprogress nounwind uwtable
define linkonce_odr noundef nonnull align 8 dereferenceable(8) ptr @_ZSt3getILm0EJPN8facebook5velox13DecodedVectorESt14default_deleteIS2_EEERKNSt13tuple_elementIXT_ESt5tupleIJDpT0_EEE4typeERKSA_(ptr noundef nonnull align 8 dereferenceable(8) %__t) #2 comdat {
entry:
  %__t.addr = alloca ptr, align 8
  store ptr %__t, ptr %__t.addr, align 8
  %0 = load ptr, ptr %__t.addr, align 8
  %call = call noundef nonnull align 8 dereferenceable(8) ptr @_ZSt12__get_helperILm0EPN8facebook5velox13DecodedVectorEJSt14default_deleteIS2_EEERKT0_RKSt11_Tuple_implIXT_EJS6_DpT1_EE(ptr noundef nonnull align 8 dereferenceable(8) %0) #16
  ret ptr %call
}

; Function Attrs: mustprogress nounwind uwtable
define linkonce_odr noundef zeroext i1 @_ZN8facebook5velox4bits8isBitSetImEEbPKT_i(ptr noundef %bits, i32 noundef %idx) #2 comdat {
entry:
  %bits.addr = alloca ptr, align 8
  %idx.addr = alloca i32, align 4
  store ptr %bits, ptr %bits.addr, align 8
  store i32 %idx, ptr %idx.addr, align 4
  %0 = load ptr, ptr %bits.addr, align 8
  %1 = load i32, ptr %idx.addr, align 4
  %conv = sext i32 %1 to i64
  %div = udiv i64 %conv, 64
  %arrayidx = getelementptr inbounds i64, ptr %0, i64 %div
  %2 = load i64, ptr %arrayidx, align 8
  %3 = load i32, ptr %idx.addr, align 4
  %conv1 = sext i32 %3 to i64
  %and = and i64 %conv1, 63
  %shl = shl i64 1, %and
  %and2 = and i64 %2, %shl
  %tobool = icmp ne i64 %and2, 0
  ret i1 %tobool
}

; Function Attrs: mustprogress nounwind uwtable
define linkonce_odr noundef ptr @_ZNKSt15__uniq_ptr_implIN8facebook5velox13DecodedVectorESt14default_deleteIS2_EE6_M_ptrEv(ptr noundef nonnull align 8 dereferenceable(8) %this) #2 comdat align 2 {
entry:
  %this.addr = alloca ptr, align 8
  store ptr %this, ptr %this.addr, align 8
  %this1 = load ptr, ptr %this.addr, align 8
  %_M_t = getelementptr inbounds %"class.std::__uniq_ptr_impl.103", ptr %this1, i32 0, i32 0
  %call = call noundef nonnull align 8 dereferenceable(8) ptr @_ZSt3getILm0EJPN8facebook5velox13DecodedVectorESt14default_deleteIS2_EEERKNSt13tuple_elementIXT_ESt5tupleIJDpT0_EEE4typeERKSA_(ptr noundef nonnull align 8 dereferenceable(8) %_M_t) #16
  %0 = load ptr, ptr %call, align 8
  ret ptr %0
}

; Function Attrs: mustprogress nounwind uwtable
define linkonce_odr noundef ptr @_ZNKSt12__shared_ptrIN8facebook5velox11ArrayVectorELN9__gnu_cxx12_Lock_policyE2EE3getEv(ptr noundef nonnull align 8 dereferenceable(16) %this) #2 comdat align 2 {
entry:
  %this.addr = alloca ptr, align 8
  store ptr %this, ptr %this.addr, align 8
  %this1 = load ptr, ptr %this.addr, align 8
  %_M_ptr = getelementptr inbounds %"class.std::__shared_ptr.68", ptr %this1, i32 0, i32 0
  %0 = load ptr, ptr %_M_ptr, align 8
  ret ptr %0
}

; Function Attrs: mustprogress nounwind uwtable
define linkonce_odr noundef i32 @_ZNK8facebook5velox13DecodedVector5indexEi(ptr noundef nonnull align 8 dereferenceable(120) %this, i32 noundef %idx) #2 comdat align 2 {
entry:
  %retval = alloca i32, align 4
  %this.addr = alloca ptr, align 8
  %idx.addr = alloca i32, align 4
  store ptr %this, ptr %this.addr, align 8
  store i32 %idx, ptr %idx.addr, align 4
  %this1 = load ptr, ptr %this.addr, align 8
  %isIdentityMapping_ = getelementptr inbounds %"class.facebook::velox::DecodedVector", ptr %this1, i32 0, i32 8
  %0 = load i8, ptr %isIdentityMapping_, align 2
  %tobool = trunc i8 %0 to i1
  br i1 %tobool, label %if.then, label %if.end

if.then:                                          ; preds = %entry
  %1 = load i32, ptr %idx.addr, align 4
  store i32 %1, ptr %retval, align 4
  br label %return

if.end:                                           ; preds = %entry
  %isConstantMapping_ = getelementptr inbounds %"class.facebook::velox::DecodedVector", ptr %this1, i32 0, i32 9
  %2 = load i8, ptr %isConstantMapping_, align 1
  %tobool2 = trunc i8 %2 to i1
  br i1 %tobool2, label %if.then3, label %if.end4

if.then3:                                         ; preds = %if.end
  %constantIndex_ = getelementptr inbounds %"class.facebook::velox::DecodedVector", ptr %this1, i32 0, i32 11
  %3 = load i32, ptr %constantIndex_, align 8
  store i32 %3, ptr %retval, align 4
  br label %return

if.end4:                                          ; preds = %if.end
  %indices_ = getelementptr inbounds %"class.facebook::velox::DecodedVector", ptr %this1, i32 0, i32 1
  %4 = load ptr, ptr %indices_, align 8
  %5 = load i32, ptr %idx.addr, align 4
  %idxprom = sext i32 %5 to i64
  %arrayidx = getelementptr inbounds i32, ptr %4, i64 %idxprom
  %6 = load i32, ptr %arrayidx, align 4
  store i32 %6, ptr %retval, align 4
  br label %return

return:                                           ; preds = %if.end4, %if.then3, %if.then
  %7 = load i32, ptr %retval, align 4
  ret i32 %7
}

; Function Attrs: mustprogress uwtable
define linkonce_odr noundef zeroext i1 @_ZN8facebook5velox4bits9isBitNullEPKmi(ptr noundef %bits, i32 noundef %index) #0 comdat {
entry:
  %bits.addr = alloca ptr, align 8
  %index.addr = alloca i32, align 4
  store ptr %bits, ptr %bits.addr, align 8
  store i32 %index, ptr %index.addr, align 4
  %0 = load ptr, ptr %bits.addr, align 8
  %1 = load i32, ptr %index.addr, align 4
  %call = call noundef zeroext i1 @_ZN8facebook5velox4bits8isBitSetImEEbPKT_i(ptr noundef %0, i32 noundef %1)
  %conv = zext i1 %call to i32
  %cmp = icmp eq i32 %conv, 0
  ret i1 %cmp
}

; Function Attrs: mustprogress nounwind uwtable
define linkonce_odr noundef ptr @_ZNKSt10unique_ptrIN8facebook5velox13DecodedVectorESt14default_deleteIS2_EE3getEv(ptr noundef nonnull align 8 dereferenceable(8) %this) #2 comdat align 2 {
entry:
  %this.addr = alloca ptr, align 8
  store ptr %this, ptr %this.addr, align 8
  %this1 = load ptr, ptr %this.addr, align 8
  %_M_t = getelementptr inbounds %"class.std::unique_ptr.101", ptr %this1, i32 0, i32 0
  %call = call noundef ptr @_ZNKSt15__uniq_ptr_implIN8facebook5velox13DecodedVectorESt14default_deleteIS2_EE6_M_ptrEv(ptr noundef nonnull align 8 dereferenceable(8) %_M_t) #16
  ret ptr %call
}

; Function Attrs: mustprogress nounwind uwtable
define linkonce_odr noundef ptr @_ZNKSt19__shared_ptr_accessIN8facebook5velox11ArrayVectorELN9__gnu_cxx12_Lock_policyE2ELb0ELb0EE6_M_getEv(ptr noundef nonnull align 1 dereferenceable(1) %this) #2 comdat align 2 {
entry:
  %this.addr = alloca ptr, align 8
  store ptr %this, ptr %this.addr, align 8
  %this1 = load ptr, ptr %this.addr, align 8
  %call = call noundef ptr @_ZNKSt12__shared_ptrIN8facebook5velox11ArrayVectorELN9__gnu_cxx12_Lock_policyE2EE3getEv(ptr noundef nonnull align 8 dereferenceable(16) %this1) #16
  ret ptr %call
}

; Function Attrs: mustprogress nounwind uwtable
define internal void @_ZN8facebook5velox9functions12_GLOBAL__N_123recordInvalidStartIndexEiRNS0_4exec7EvalCtxE(i32 noundef %row, ptr noundef nonnull align 8 dereferenceable(104) %context) #2 {
entry:
  %row.addr = alloca i32, align 4
  %context.addr = alloca ptr, align 8
  store i32 %row, ptr %row.addr, align 4
  store ptr %context, ptr %context.addr, align 8
  call void @llvm.trap()
  ret void
}

; Function Attrs: mustprogress uwtable
define linkonce_odr noundef i64 @_ZNK8facebook5velox13DecodedVector7valueAtIlEET_i(ptr noundef nonnull align 8 dereferenceable(120) %this, i32 noundef %idx) #0 comdat align 2 {
entry:
  %this.addr = alloca ptr, align 8
  %idx.addr = alloca i32, align 4
  store ptr %this, ptr %this.addr, align 8
  store i32 %idx, ptr %idx.addr, align 4
  %this1 = load ptr, ptr %this.addr, align 8
  %data_ = getelementptr inbounds %"class.facebook::velox::DecodedVector", ptr %this1, i32 0, i32 2
  %0 = load ptr, ptr %data_, align 8
  %1 = load i32, ptr %idx.addr, align 4
  %call = call noundef i32 @_ZNK8facebook5velox13DecodedVector5indexEi(ptr noundef nonnull align 8 dereferenceable(120) %this1, i32 noundef %1)
  %idxprom = sext i32 %call to i64
  %arrayidx = getelementptr inbounds i64, ptr %0, i64 %idxprom
  %2 = load i64, ptr %arrayidx, align 8
  ret i64 %2
}

; Function Attrs: mustprogress uwtable
define linkonce_odr noundef zeroext i1 @_ZNK8facebook5velox13DecodedVector8isNullAtEi(ptr noundef nonnull align 8 dereferenceable(120) %this, i32 noundef %idx) #0 comdat align 2 {
entry:
  %retval = alloca i1, align 1
  %this.addr = alloca ptr, align 8
  %idx.addr = alloca i32, align 4
  store ptr %this, ptr %this.addr, align 8
  store i32 %idx, ptr %idx.addr, align 4
  %this1 = load ptr, ptr %this.addr, align 8
  %nulls_ = getelementptr inbounds %"class.facebook::velox::DecodedVector", ptr %this1, i32 0, i32 3
  %0 = load ptr, ptr %nulls_, align 8
  %tobool = icmp ne ptr %0, null
  br i1 %tobool, label %if.end, label %if.then

if.then:                                          ; preds = %entry
  store i1 false, ptr %retval, align 1
  br label %return

if.end:                                           ; preds = %entry
  %isIdentityMapping_ = getelementptr inbounds %"class.facebook::velox::DecodedVector", ptr %this1, i32 0, i32 8
  %1 = load i8, ptr %isIdentityMapping_, align 2
  %tobool2 = trunc i8 %1 to i1
  br i1 %tobool2, label %if.then4, label %lor.lhs.false

lor.lhs.false:                                    ; preds = %if.end
  %hasExtraNulls_ = getelementptr inbounds %"class.facebook::velox::DecodedVector", ptr %this1, i32 0, i32 7
  %2 = load i8, ptr %hasExtraNulls_, align 1
  %tobool3 = trunc i8 %2 to i1
  br i1 %tobool3, label %if.then4, label %if.end6

if.then4:                                         ; preds = %lor.lhs.false, %if.end
  %nulls_5 = getelementptr inbounds %"class.facebook::velox::DecodedVector", ptr %this1, i32 0, i32 3
  %3 = load ptr, ptr %nulls_5, align 8
  %4 = load i32, ptr %idx.addr, align 4
  %call = call noundef zeroext i1 @_ZN8facebook5velox4bits9isBitNullEPKmi(ptr noundef %3, i32 noundef %4)
  store i1 %call, ptr %retval, align 1
  br label %return

if.end6:                                          ; preds = %lor.lhs.false
  %isConstantMapping_ = getelementptr inbounds %"class.facebook::velox::DecodedVector", ptr %this1, i32 0, i32 9
  %5 = load i8, ptr %isConstantMapping_, align 1
  %tobool7 = trunc i8 %5 to i1
  br i1 %tobool7, label %if.then8, label %if.end11

if.then8:                                         ; preds = %if.end6
  %nulls_9 = getelementptr inbounds %"class.facebook::velox::DecodedVector", ptr %this1, i32 0, i32 3
  %6 = load ptr, ptr %nulls_9, align 8
  %call10 = call noundef zeroext i1 @_ZN8facebook5velox4bits9isBitNullEPKmi(ptr noundef %6, i32 noundef 0)
  store i1 %call10, ptr %retval, align 1
  br label %return

if.end11:                                         ; preds = %if.end6
  %nulls_12 = getelementptr inbounds %"class.facebook::velox::DecodedVector", ptr %this1, i32 0, i32 3
  %7 = load ptr, ptr %nulls_12, align 8
  %indices_ = getelementptr inbounds %"class.facebook::velox::DecodedVector", ptr %this1, i32 0, i32 1
  %8 = load ptr, ptr %indices_, align 8
  %9 = load i32, ptr %idx.addr, align 4
  %idxprom = sext i32 %9 to i64
  %arrayidx = getelementptr inbounds i32, ptr %8, i64 %idxprom
  %10 = load i32, ptr %arrayidx, align 4
  %call13 = call noundef zeroext i1 @_ZN8facebook5velox4bits9isBitNullEPKmi(ptr noundef %7, i32 noundef %10)
  store i1 %call13, ptr %retval, align 1
  br label %return

return:                                           ; preds = %if.end11, %if.then8, %if.then4, %if.then
  %11 = load i1, ptr %retval, align 1
  ret i1 %11
}

; Function Attrs: mustprogress nounwind uwtable
define linkonce_odr noundef ptr @_ZN8facebook5velox4exec18LocalDecodedVectorptEv(ptr noundef nonnull align 8 dereferenceable(16) %this) #2 comdat align 2 {
entry:
  %this.addr = alloca ptr, align 8
  store ptr %this, ptr %this.addr, align 8
  %this1 = load ptr, ptr %this.addr, align 8
  %vector_ = getelementptr inbounds %"class.facebook::velox::exec::LocalDecodedVector", ptr %this1, i32 0, i32 1
  %call = call noundef ptr @_ZNKSt10unique_ptrIN8facebook5velox13DecodedVectorESt14default_deleteIS2_EE3getEv(ptr noundef nonnull align 8 dereferenceable(8) %vector_) #16
  ret ptr %call
}

; Function Attrs: mustprogress nounwind uwtable
define linkonce_odr noundef ptr @_ZNKSt19__shared_ptr_accessIN8facebook5velox11ArrayVectorELN9__gnu_cxx12_Lock_policyE2ELb0ELb0EEptEv(ptr noundef nonnull align 1 dereferenceable(1) %this) #2 comdat align 2 {
entry:
  %this.addr = alloca ptr, align 8
  store ptr %this, ptr %this.addr, align 8
  %this1 = load ptr, ptr %this.addr, align 8
  %call = call noundef ptr @_ZNKSt19__shared_ptr_accessIN8facebook5velox11ArrayVectorELN9__gnu_cxx12_Lock_policyE2ELb0ELb0EE6_M_getEv(ptr noundef nonnull align 1 dereferenceable(1) %this1) #16
  ret ptr %call
}

; Function Attrs: mustprogress uwtable
define internal void @_ZZNK8facebook5velox9functions12_GLOBAL__N_117FindFirstFunction5applyERKNS0_17SelectivityVectorERSt6vectorISt10shared_ptrINS0_10BaseVectorEESaISA_EERKS8_IKNS0_4TypeEERNS0_4exec7EvalCtxERSA_ENKUlT_E_clIiEEDaSN_(ptr noundef nonnull align 8 dereferenceable(24) %this, i32 noundef %row) #0 align 2 {
entry:
  %this.addr = alloca ptr, align 8
  %row.addr = alloca i32, align 4
  %start = alloca i64, align 8
  store ptr %this, ptr %this.addr, align 8
  store i32 %row, ptr %row.addr, align 4
  %this1 = load ptr, ptr %this.addr, align 8
  %0 = getelementptr inbounds %class.anon, ptr %this1, i32 0, i32 0
  %1 = load ptr, ptr %0, align 8
  %call = call noundef ptr @_ZNKSt19__shared_ptr_accessIN8facebook5velox11ArrayVectorELN9__gnu_cxx12_Lock_policyE2ELb0ELb0EEptEv(ptr noundef nonnull align 1 dereferenceable(1) %1) #16
  %2 = load i32, ptr %row.addr, align 4
  %vtable = load ptr, ptr %call, align 8
  %vfn = getelementptr inbounds ptr, ptr %vtable, i64 4
  %3 = load ptr, ptr %vfn, align 8
  %call2 = call noundef zeroext i1 %3(ptr noundef nonnull align 8 dereferenceable(99) %call, i32 noundef %2)
  br i1 %call2, label %if.then, label %lor.lhs.false

lor.lhs.false:                                    ; preds = %entry
  %4 = getelementptr inbounds %class.anon, ptr %this1, i32 0, i32 1
  %5 = load ptr, ptr %4, align 8
  %call3 = call noundef ptr @_ZN8facebook5velox4exec18LocalDecodedVectorptEv(ptr noundef nonnull align 8 dereferenceable(16) %5)
  %6 = load i32, ptr %row.addr, align 4
  %call4 = call noundef zeroext i1 @_ZNK8facebook5velox13DecodedVector8isNullAtEi(ptr noundef nonnull align 8 dereferenceable(120) %call3, i32 noundef %6)
  br i1 %call4, label %if.then, label %if.end

if.then:                                          ; preds = %lor.lhs.false, %entry
  br label %if.end8

if.end:                                           ; preds = %lor.lhs.false
  %7 = getelementptr inbounds %class.anon, ptr %this1, i32 0, i32 1
  %8 = load ptr, ptr %7, align 8
  %call5 = call noundef ptr @_ZN8facebook5velox4exec18LocalDecodedVectorptEv(ptr noundef nonnull align 8 dereferenceable(16) %8)
  %9 = load i32, ptr %row.addr, align 4
  %call6 = call noundef i64 @_ZNK8facebook5velox13DecodedVector7valueAtIlEET_i(ptr noundef nonnull align 8 dereferenceable(120) %call5, i32 noundef %9)
  store i64 %call6, ptr %start, align 8
  %10 = load i64, ptr %start, align 8
  %cmp = icmp eq i64 %10, 0
  br i1 %cmp, label %if.then7, label %if.end8

if.then7:                                         ; preds = %if.end
  %11 = load i32, ptr %row.addr, align 4
  %12 = getelementptr inbounds %class.anon, ptr %this1, i32 0, i32 2
  %13 = load ptr, ptr %12, align 8
  call void @_ZN8facebook5velox9functions12_GLOBAL__N_123recordInvalidStartIndexEiRNS0_4exec7EvalCtxE(i32 noundef %11, ptr noundef nonnull align 8 dereferenceable(104) %13)
  br label %if.end8

if.end8:                                          ; preds = %if.then7, %if.end, %if.then
  ret void
}