; Function Attrs: mustprogress uwtable
define internal fastcc void @_ZZNK8facebook5velox9functions12_GLOBAL__N_117FindFirstFunction5applyERKNS0_17SelectivityVectorERSt6vectorISt10shared_ptrINS0_10BaseVectorEESaISA_EERKS8_IKNS0_4TypeEERNS0_4exec7EvalCtxERSA_ENKUlT_E_clIiEEDaSN_(ptr nocapture noundef nonnull readonly align 8 dereferenceable(24) %this, i32 noundef %row) unnamed_addr #0 align 2 {
entry:
  %0 = load ptr, ptr %this, align 8
  %1 = load ptr, ptr %0, align 8
  %vtable = load ptr, ptr %1, align 8
  %vfn = getelementptr inbounds i8, ptr %vtable, i64 32
  %2 = load ptr, ptr %vfn, align 8
  %call2 = tail call noundef zeroext i1 %2(ptr noundef nonnull align 8 dereferenceable(99) %1, i32 noundef %row)
  br i1 %call2, label %if.end8, label %lor.lhs.false

lor.lhs.false:                                    ; preds = %entry
  %3 = getelementptr inbounds i8, ptr %this, i64 8
  %4 = load ptr, ptr %3, align 8
  %vector_.i = getelementptr inbounds i8, ptr %4, i64 8
  %5 = load ptr, ptr %vector_.i, align 8
  %nulls_.i = getelementptr inbounds i8, ptr %5, i64 24
  %6 = load ptr, ptr %nulls_.i, align 8
  %tobool.not.i = icmp eq ptr %6, null
  %isIdentityMapping_.i.i.phi.trans.insert = getelementptr inbounds i8, ptr %5, i64 58
  %.pre = load i8, ptr %isIdentityMapping_.i.i.phi.trans.insert, align 2
  br i1 %tobool.not.i, label %if.end, label %if.end.i

if.end.i:                                         ; preds = %lor.lhs.false
  %7 = and i8 %.pre, 1
  %tobool2.not.i = icmp eq i8 %7, 0
  br i1 %tobool2.not.i, label %lor.lhs.false.i, label %if.then4.i

lor.lhs.false.i:                                  ; preds = %if.end.i
  %hasExtraNulls_.i = getelementptr inbounds i8, ptr %5, i64 57
  %8 = load i8, ptr %hasExtraNulls_.i, align 1
  %9 = and i8 %8, 1
  %tobool3.not.i = icmp eq i8 %9, 0
  br i1 %tobool3.not.i, label %if.end6.i, label %if.then4.i

if.then4.i:                                       ; preds = %lor.lhs.false.i, %if.end.i
  %conv.i.i.i = sext i32 %row to i64
  %div2.i.i.i = lshr i64 %conv.i.i.i, 6
  %arrayidx.i.i.i = getelementptr inbounds i64, ptr %6, i64 %div2.i.i.i
  %10 = load i64, ptr %arrayidx.i.i.i, align 8
  %and.i.i.i = and i64 %conv.i.i.i, 63
  %shl.i.i.i = shl nuw i64 1, %and.i.i.i
  %and2.i.i.i = and i64 %10, %shl.i.i.i
  %tobool.i.not.i.i = icmp eq i64 %and2.i.i.i, 0
  br i1 %tobool.i.not.i.i, label %if.end8, label %if.end

if.end6.i:                                        ; preds = %lor.lhs.false.i
  %isConstantMapping_.i = getelementptr inbounds i8, ptr %5, i64 59
  %11 = load i8, ptr %isConstantMapping_.i, align 1
  %12 = and i8 %11, 1
  %tobool7.not.i = icmp eq i8 %12, 0
  br i1 %tobool7.not.i, label %_ZNK8facebook5velox13DecodedVector8isNullAtEi.exit, label %if.then8.i

if.then8.i:                                       ; preds = %if.end6.i
  %13 = load i64, ptr %6, align 8
  %and2.i.i2.i = and i64 %13, 1
  %tobool.i.not.i3.i = icmp eq i64 %and2.i.i2.i, 0
  br i1 %tobool.i.not.i3.i, label %if.end8, label %if.end

_ZNK8facebook5velox13DecodedVector8isNullAtEi.exit: ; preds = %if.end6.i
  %indices_.i = getelementptr inbounds i8, ptr %5, i64 8
  %14 = load ptr, ptr %indices_.i, align 8
  %idxprom.i = sext i32 %row to i64
  %arrayidx.i = getelementptr inbounds i32, ptr %14, i64 %idxprom.i
  %15 = load i32, ptr %arrayidx.i, align 4
  %conv.i.i4.i = sext i32 %15 to i64
  %div2.i.i5.i = lshr i64 %conv.i.i4.i, 6
  %arrayidx.i.i6.i = getelementptr inbounds i64, ptr %6, i64 %div2.i.i5.i
  %16 = load i64, ptr %arrayidx.i.i6.i, align 8
  %and.i.i7.i = and i64 %conv.i.i4.i, 63
  %shl.i.i8.i = shl nuw i64 1, %and.i.i7.i
  %and2.i.i9.i = and i64 %shl.i.i8.i, %16
  %tobool.i.not.i10.i = icmp eq i64 %and2.i.i9.i, 0
  br i1 %tobool.i.not.i10.i, label %if.end8, label %if.end

if.end:                                           ; preds = %lor.lhs.false, %if.then8.i, %if.then4.i, %_ZNK8facebook5velox13DecodedVector8isNullAtEi.exit
  %data_.i = getelementptr inbounds i8, ptr %5, i64 16
  %17 = load ptr, ptr %data_.i, align 8
  %18 = and i8 %.pre, 1
  %tobool.not.i.i = icmp eq i8 %18, 0
  br i1 %tobool.not.i.i, label %if.end.i.i, label %_ZNK8facebook5velox13DecodedVector7valueAtIlEET_i.exit

if.end.i.i:                                       ; preds = %if.end
  %isConstantMapping_.i.i = getelementptr inbounds i8, ptr %5, i64 59
  %19 = load i8, ptr %isConstantMapping_.i.i, align 1
  %20 = and i8 %19, 1
  %tobool2.not.i.i = icmp eq i8 %20, 0
  br i1 %tobool2.not.i.i, label %if.end4.i.i, label %if.then3.i.i

if.then3.i.i:                                     ; preds = %if.end.i.i
  %constantIndex_.i.i = getelementptr inbounds i8, ptr %5, i64 64
  %21 = load i32, ptr %constantIndex_.i.i, align 8
  br label %_ZNK8facebook5velox13DecodedVector7valueAtIlEET_i.exit

if.end4.i.i:                                      ; preds = %if.end.i.i
  %indices_.i.i = getelementptr inbounds i8, ptr %5, i64 8
  %22 = load ptr, ptr %indices_.i.i, align 8
  %idxprom.i.i = sext i32 %row to i64
  %arrayidx.i.i = getelementptr inbounds i32, ptr %22, i64 %idxprom.i.i
  %23 = load i32, ptr %arrayidx.i.i, align 4
  br label %_ZNK8facebook5velox13DecodedVector7valueAtIlEET_i.exit

_ZNK8facebook5velox13DecodedVector7valueAtIlEET_i.exit: ; preds = %if.end, %if.then3.i.i, %if.end4.i.i
  %retval.0.i.i = phi i32 [ %21, %if.then3.i.i ], [ %23, %if.end4.i.i ], [ %row, %if.end ]
  %idxprom.i5 = sext i32 %retval.0.i.i to i64
  %arrayidx.i6 = getelementptr inbounds i64, ptr %17, i64 %idxprom.i5
  %24 = load i64, ptr %arrayidx.i6, align 8
  %cmp = icmp eq i64 %24, 0
  br i1 %cmp, label %if.then7, label %if.end8

if.then7:                                         ; preds = %_ZNK8facebook5velox13DecodedVector7valueAtIlEET_i.exit
  tail call void @llvm.trap()
  unreachable

if.end8:                                          ; preds = %if.then8.i, %if.then4.i, %entry, %_ZNK8facebook5velox13DecodedVector8isNullAtEi.exit, %_ZNK8facebook5velox13DecodedVector7valueAtIlEET_i.exit
  ret void
}